; ModuleID = '12/881.c'
source_filename = "12/881.c"
target datalayout = "e-m:e-p270:32:32-p271:32:32-p272:64:64-i64:64-f80:128-n8:16:32:64-S128"
target triple = "x86_64-pc-linux-gnu"

@.str = private unnamed_addr constant [3 x i8] c"%d\00", align 1
@.str.1 = private unnamed_addr constant [4 x i8] c"%d\0A\00", align 1

; Function Attrs: noinline nounwind uwtable
define dso_local void @main() #0 {
  %1 = alloca [20 x i32], align 16
  %2 = alloca i32, align 4
  %3 = alloca i32, align 4
  %4 = alloca i32, align 4
  %5 = alloca i32, align 4
  br label %6

6:                                                ; preds = %76, %0
  store i32 0, i32* %2, align 4
  store i32 0, i32* %5, align 4
  br label %7

7:                                                ; preds = %66, %6
  %8 = load i32, i32* %2, align 4
  %9 = sext i32 %8 to i64
  %10 = getelementptr inbounds [20 x i32], [20 x i32]* %1, i64 0, i64 %9
  %11 = call i32 (i8*, ...) @__isoc99_scanf(i8* getelementptr inbounds ([3 x i8], [3 x i8]* @.str, i64 0, i64 0), i32* %10)
  store i32 0, i32* %4, align 4
  br label %12

12:                                               ; preds = %49, %7
  %13 = load i32, i32* %2, align 4
  %14 = icmp sgt i32 %13, 0
  br i1 %14, label %15, label %19

15:                                               ; preds = %12
  %16 = load i32, i32* %4, align 4
  %17 = load i32, i32* %2, align 4
  %18 = icmp slt i32 %16, %17
  br label %19

19:                                               ; preds = %15, %12
  %20 = phi i1 [ false, %12 ], [ %18, %15 ]
  br i1 %20, label %21, label %52

21:                                               ; preds = %19
  %22 = load i32, i32* %2, align 4
  %23 = sext i32 %22 to i64
  %24 = getelementptr inbounds [20 x i32], [20 x i32]* %1, i64 0, i64 %23
  %25 = load i32, i32* %24, align 4
  %26 = sitofp i32 %25 to double
  %27 = fdiv double %26, 2.000000e+00
  %28 = load i32, i32* %4, align 4
  %29 = sext i32 %28 to i64
  %30 = getelementptr inbounds [20 x i32], [20 x i32]* %1, i64 0, i64 %29
  %31 = load i32, i32* %30, align 4
  %32 = sitofp i32 %31 to double
  %33 = fcmp oeq double %27, %32
  br i1 %33, label %45, label %34

34:                                               ; preds = %21
  %35 = load i32, i32* %2, align 4
  %36 = sext i32 %35 to i64
  %37 = getelementptr inbounds [20 x i32], [20 x i32]* %1, i64 0, i64 %36
  %38 = load i32, i32* %37, align 4
  %39 = mul nsw i32 %38, 2
  %40 = load i32, i32* %4, align 4
  %41 = sext i32 %40 to i64
  %42 = getelementptr inbounds [20 x i32], [20 x i32]* %1, i64 0, i64 %41
  %43 = load i32, i32* %42, align 4
  %44 = icmp eq i32 %39, %43
  br i1 %44, label %45, label %48

45:                                               ; preds = %34, %21
  %46 = load i32, i32* %5, align 4
  %47 = add nsw i32 %46, 1
  store i32 %47, i32* %5, align 4
  br label %48

48:                                               ; preds = %45, %34
  br label %49

49:                                               ; preds = %48
  %50 = load i32, i32* %4, align 4
  %51 = add nsw i32 %50, 1
  store i32 %51, i32* %4, align 4
  br label %12

52:                                               ; preds = %19
  %53 = load i32, i32* %2, align 4
  %54 = add nsw i32 %53, 1
  store i32 %54, i32* %2, align 4
  br label %55

55:                                               ; preds = %52
  %56 = load i32, i32* %2, align 4
  %57 = sub nsw i32 %56, 1
  %58 = sext i32 %57 to i64
  %59 = getelementptr inbounds [20 x i32], [20 x i32]* %1, i64 0, i64 %58
  %60 = load i32, i32* %59, align 4
  %61 = icmp ne i32 %60, 0
  br i1 %61, label %62, label %66

62:                                               ; preds = %55
  %63 = getelementptr inbounds [20 x i32], [20 x i32]* %1, i64 0, i64 0
  %64 = load i32, i32* %63, align 16
  %65 = icmp ne i32 %64, -1
  br label %66

66:                                               ; preds = %62, %55
  %67 = phi i1 [ false, %55 ], [ %65, %62 ]
  br i1 %67, label %7, label %68

68:                                               ; preds = %66
  %69 = getelementptr inbounds [20 x i32], [20 x i32]* %1, i64 0, i64 0
  %70 = load i32, i32* %69, align 16
  %71 = icmp ne i32 %70, -1
  br i1 %71, label %72, label %75

72:                                               ; preds = %68
  %73 = load i32, i32* %5, align 4
  %74 = call i32 (i8*, ...) @printf(i8* getelementptr inbounds ([4 x i8], [4 x i8]* @.str.1, i64 0, i64 0), i32 %73)
  br label %75

75:                                               ; preds = %72, %68
  br label %76

76:                                               ; preds = %75
  %77 = getelementptr inbounds [20 x i32], [20 x i32]* %1, i64 0, i64 0
  %78 = load i32, i32* %77, align 16
  %79 = icmp ne i32 %78, -1
  br i1 %79, label %6, label %80

80:                                               ; preds = %76
  ret void
}

declare dso_local i32 @__isoc99_scanf(i8*, ...) #1

declare dso_local i32 @printf(i8*, ...) #1


!llvm.module.flags = !{!0}
!llvm.ident = !{!1}

!0 = !{i32 1, !"wchar_size", i32 4}
!1 = !{!"clang version 10.0.0-4ubuntu1 "}
